target datalayout = "e-m:e-p270:32:32-p271:32:32-p272:64:64-i64:64-i128:128-f80:128-n8:16:32:64-S128"
target triple = "x86_64-pc-linux-gnu"

%struct.pmix_list_t = type { %struct.pmix_object_t, %struct.pmix_list_item_t, i64 }
%struct.pmix_object_t = type { %union.pthread_mutex_t, ptr, i32, %struct.pmix_tma }
%union.pthread_mutex_t = type { %struct.__pthread_mutex_s }
%struct.__pthread_mutex_s = type { i32, i32, i32, i32, i32, i16, i16, %struct.__pthread_internal_list }
%struct.__pthread_internal_list = type { ptr, ptr }
%struct.pmix_tma = type { ptr, ptr, ptr, ptr, ptr, ptr, ptr, ptr }
%struct.pmix_list_item_t = type { %struct.pmix_object_t, ptr, ptr, i32 }
%struct.pmix_proc = type { [256 x i8], i32 }
%struct.prte_job_t = type { %struct.pmix_list_item_t, i32, ptr, ptr, [256 x i8], ptr, i32, i32, ptr, ptr, i32, i32, i32, i32, ptr, ptr, ptr, i32, i32, i32, i32, i32, i32, i32, %struct.pmix_proc, i32, i16, %struct.pmix_list_t, %struct.pmix_data_buffer, %struct.pmix_list_t, [256 x i8], i32, ptr, %struct.pmix_cli_result_t }
%struct.pmix_data_buffer = type { ptr, ptr, ptr, i64, i64 }
%struct.pmix_cli_result_t = type { %struct.pmix_object_t, %struct.pmix_list_t, ptr }

@.str.161 = private unnamed_addr constant [3 x i8] c": \00", align 1
@.str.164 = private unnamed_addr constant [8 x i8] c"UPDATED\00", align 1
@.str.179 = private unnamed_addr constant [15 x i8] c"OVERSUBSCRIBED\00", align 1
@.str.183 = private unnamed_addr constant [10 x i8] c"RESTARTED\00", align 1
@.str.184 = private unnamed_addr constant [8 x i8] c"ABORTED\00", align 1
@.str.185 = private unnamed_addr constant [15 x i8] c"FORWARD-OUTPUT\00", align 1
@.str.186 = private unnamed_addr constant [15 x i8] c"DO-NOT-MONITOR\00", align 1
@.str.187 = private unnamed_addr constant [8 x i8] c"FWD-COM\00", align 1
@.str.188 = private unnamed_addr constant [8 x i8] c"RESTART\00", align 1
@.str.189 = private unnamed_addr constant [10 x i8] c"MIGRATING\00", align 1
@.str.190 = private unnamed_addr constant [5 x i8] c"TOOL\00", align 1
@.str.191 = private unnamed_addr constant [9 x i8] c"LAUNCHER\00", align 1
@.str.192 = private unnamed_addr constant [15 x i8] c"ERROR-REPORTED\00", align 1

; Function Attrs: nounwind uwtable
define ptr @prte_print_job_flags(ptr noundef %0) #0 {
  %2 = alloca ptr, align 8
  %3 = alloca ptr, align 8
  %4 = alloca ptr, align 8
  %5 = alloca ptr, align 8
  store ptr %0, ptr %2, align 8, !tbaa !109
  call void @llvm.lifetime.start.p0(i64 8, ptr %3) #11
  %6 = load ptr, ptr %2, align 8, !tbaa !109
  store ptr %6, ptr %3, align 8, !tbaa !10
  call void @llvm.lifetime.start.p0(i64 8, ptr %4) #11
  store ptr null, ptr %4, align 8, !tbaa !92
  call void @llvm.lifetime.start.p0(i64 8, ptr %5) #11
  %7 = load ptr, ptr %3, align 8, !tbaa !10
  %8 = getelementptr inbounds nuw %struct.prte_job_t, ptr %7, i32 0, i32 4
  %9 = getelementptr inbounds [256 x i8], ptr %8, i64 0, i64 0
  %10 = call ptr @prte_util_print_jobids(ptr noundef %9)
  %11 = call i32 @PMIx_Argv_append_nosize(ptr noundef %4, ptr noundef %10)
  %12 = call i32 @PMIx_Argv_append_nosize(ptr noundef %4, ptr noundef @.str.161)
  %13 = load ptr, ptr %3, align 8, !tbaa !10
  %14 = getelementptr inbounds nuw %struct.prte_job_t, ptr %13, i32 0, i32 26
  %15 = load i16, ptr %14, align 4, !tbaa !111
  %16 = zext i16 %15 to i32
  %17 = and i32 %16, 1
  %18 = icmp ne i32 %17, 0
  br i1 %18, label %19, label %21

19:                                               ; preds = %1
  %20 = call i32 @PMIx_Argv_append_nosize(ptr noundef %4, ptr noundef @.str.164)
  br label %21

21:                                               ; preds = %19, %1
  %22 = load ptr, ptr %3, align 8, !tbaa !10
  %23 = getelementptr inbounds nuw %struct.prte_job_t, ptr %22, i32 0, i32 26
  %24 = load i16, ptr %23, align 4, !tbaa !111
  %25 = zext i16 %24 to i32
  %26 = and i32 %25, 4
  %27 = icmp ne i32 %26, 0
  br i1 %27, label %28, label %30

28:                                               ; preds = %21
  %29 = call i32 @PMIx_Argv_append_nosize(ptr noundef %4, ptr noundef @.str.183)
  br label %30

30:                                               ; preds = %28, %21
  %31 = load ptr, ptr %3, align 8, !tbaa !10
  %32 = getelementptr inbounds nuw %struct.prte_job_t, ptr %31, i32 0, i32 26
  %33 = load i16, ptr %32, align 4, !tbaa !111
  %34 = zext i16 %33 to i32
  %35 = and i32 %34, 8
  %36 = icmp ne i32 %35, 0
  br i1 %36, label %37, label %39

37:                                               ; preds = %30
  %38 = call i32 @PMIx_Argv_append_nosize(ptr noundef %4, ptr noundef @.str.184)
  br label %39

39:                                               ; preds = %37, %30
  %40 = load ptr, ptr %3, align 8, !tbaa !10
  %41 = getelementptr inbounds nuw %struct.prte_job_t, ptr %40, i32 0, i32 26
  %42 = load i16, ptr %41, align 4, !tbaa !111
  %43 = zext i16 %42 to i32
  %44 = and i32 %43, 32
  %45 = icmp ne i32 %44, 0
  br i1 %45, label %46, label %48

46:                                               ; preds = %39
  %47 = call i32 @PMIx_Argv_append_nosize(ptr noundef %4, ptr noundef @.str.185)
  br label %48

48:                                               ; preds = %46, %39
  %49 = load ptr, ptr %3, align 8, !tbaa !10
  %50 = getelementptr inbounds nuw %struct.prte_job_t, ptr %49, i32 0, i32 26
  %51 = load i16, ptr %50, align 4, !tbaa !111
  %52 = zext i16 %51 to i32
  %53 = and i32 %52, 64
  %54 = icmp ne i32 %53, 0
  br i1 %54, label %55, label %57

55:                                               ; preds = %48
  %56 = call i32 @PMIx_Argv_append_nosize(ptr noundef %4, ptr noundef @.str.186)
  br label %57

57:                                               ; preds = %55, %48
  %58 = load ptr, ptr %3, align 8, !tbaa !10
  %59 = getelementptr inbounds nuw %struct.prte_job_t, ptr %58, i32 0, i32 26
  %60 = load i16, ptr %59, align 4, !tbaa !111
  %61 = zext i16 %60 to i32
  %62 = and i32 %61, 128
  %63 = icmp ne i32 %62, 0
  br i1 %63, label %64, label %66

64:                                               ; preds = %57
  %65 = call i32 @PMIx_Argv_append_nosize(ptr noundef %4, ptr noundef @.str.187)
  br label %66

66:                                               ; preds = %64, %57
  %67 = load ptr, ptr %3, align 8, !tbaa !10
  %68 = getelementptr inbounds nuw %struct.prte_job_t, ptr %67, i32 0, i32 26
  %69 = load i16, ptr %68, align 4, !tbaa !111
  %70 = zext i16 %69 to i32
  %71 = and i32 %70, 512
  %72 = icmp ne i32 %71, 0
  br i1 %72, label %73, label %75

73:                                               ; preds = %66
  %74 = call i32 @PMIx_Argv_append_nosize(ptr noundef %4, ptr noundef @.str.188)
  br label %75

75:                                               ; preds = %73, %66
  %76 = load ptr, ptr %3, align 8, !tbaa !10
  %77 = getelementptr inbounds nuw %struct.prte_job_t, ptr %76, i32 0, i32 26
  %78 = load i16, ptr %77, align 4, !tbaa !111
  %79 = zext i16 %78 to i32
  %80 = and i32 %79, 1024
  %81 = icmp ne i32 %80, 0
  br i1 %81, label %82, label %84

82:                                               ; preds = %75
  %83 = call i32 @PMIx_Argv_append_nosize(ptr noundef %4, ptr noundef @.str.189)
  br label %84

84:                                               ; preds = %82, %75
  %85 = load ptr, ptr %3, align 8, !tbaa !10
  %86 = getelementptr inbounds nuw %struct.prte_job_t, ptr %85, i32 0, i32 26
  %87 = load i16, ptr %86, align 4, !tbaa !111
  %88 = zext i16 %87 to i32
  %89 = and i32 %88, 2048
  %90 = icmp ne i32 %89, 0
  br i1 %90, label %91, label %93

91:                                               ; preds = %84
  %92 = call i32 @PMIx_Argv_append_nosize(ptr noundef %4, ptr noundef @.str.179)
  br label %93

93:                                               ; preds = %91, %84
  %94 = load ptr, ptr %3, align 8, !tbaa !10
  %95 = getelementptr inbounds nuw %struct.prte_job_t, ptr %94, i32 0, i32 26
  %96 = load i16, ptr %95, align 4, !tbaa !111
  %97 = zext i16 %96 to i32
  %98 = and i32 %97, 4096
  %99 = icmp ne i32 %98, 0
  br i1 %99, label %100, label %102

100:                                              ; preds = %93
  %101 = call i32 @PMIx_Argv_append_nosize(ptr noundef %4, ptr noundef @.str.190)
  br label %102

102:                                              ; preds = %100, %93
  %103 = load ptr, ptr %3, align 8, !tbaa !10
  %104 = getelementptr inbounds nuw %struct.prte_job_t, ptr %103, i32 0, i32 26
  %105 = load i16, ptr %104, align 4, !tbaa !111
  %106 = zext i16 %105 to i32
  %107 = and i32 %106, 8192
  %108 = icmp ne i32 %107, 0
  br i1 %108, label %109, label %111

109:                                              ; preds = %102
  %110 = call i32 @PMIx_Argv_append_nosize(ptr noundef %4, ptr noundef @.str.191)
  br label %111

111:                                              ; preds = %109, %102
  %112 = load ptr, ptr %3, align 8, !tbaa !10
  %113 = getelementptr inbounds nuw %struct.prte_job_t, ptr %112, i32 0, i32 26
  %114 = load i16, ptr %113, align 4, !tbaa !111
  %115 = zext i16 %114 to i32
  %116 = and i32 %115, 16384
  %117 = icmp ne i32 %116, 0
  br i1 %117, label %118, label %120

118:                                              ; preds = %111
  %119 = call i32 @PMIx_Argv_append_nosize(ptr noundef %4, ptr noundef @.str.192)
  br label %120

120:                                              ; preds = %118, %111
  %121 = load ptr, ptr %4, align 8, !tbaa !92
  %122 = call ptr @PMIx_Argv_join(ptr noundef %121, i32 noundef 124)
  store ptr %122, ptr %5, align 8, !tbaa !85
  %123 = load ptr, ptr %4, align 8, !tbaa !92
  call void @PMIx_Argv_free(ptr noundef %123)
  %124 = load ptr, ptr %5, align 8, !tbaa !85
  call void @llvm.lifetime.end.p0(i64 8, ptr %5) #11
  call void @llvm.lifetime.end.p0(i64 8, ptr %4) #11
  call void @llvm.lifetime.end.p0(i64 8, ptr %3) #11
  ret ptr %124
}