; Function Attrs: nounwind uwtable
define ptr @prte_print_job_flags(ptr noundef %0) local_unnamed_addr #0 {
  %2 = alloca ptr, align 8
  call void @llvm.lifetime.start.p0(i64 8, ptr nonnull %2) #13
  store ptr null, ptr %2, align 8, !tbaa !70
  %3 = getelementptr inbounds nuw i8, ptr %0, i64 168
  %4 = tail call ptr @prte_util_print_jobids(ptr noundef nonnull %3) #13
  %5 = call i32 @PMIx_Argv_append_nosize(ptr noundef nonnull %2, ptr noundef %4) #13
  %6 = call i32 @PMIx_Argv_append_nosize(ptr noundef nonnull %2, ptr noundef nonnull @.str.161) #13
  %7 = getelementptr inbounds nuw i8, ptr %0, i64 788
  %8 = load i16, ptr %7, align 4, !tbaa !84
  %9 = and i16 %8, 1
  %.not = icmp eq i16 %9, 0
  br i1 %.not, label %12, label %10

10:                                               ; preds = %1
  %11 = call i32 @PMIx_Argv_append_nosize(ptr noundef nonnull %2, ptr noundef nonnull @.str.164) #13
  %.pre = load i16, ptr %7, align 4, !tbaa !84
  br label %12

12:                                               ; preds = %10, %1
  %13 = phi i16 [ %.pre, %10 ], [ %8, %1 ]
  %14 = and i16 %13, 4
  %.not15 = icmp eq i16 %14, 0
  br i1 %.not15, label %17, label %15

15:                                               ; preds = %12
  %16 = call i32 @PMIx_Argv_append_nosize(ptr noundef nonnull %2, ptr noundef nonnull @.str.183) #13
  %.pre26 = load i16, ptr %7, align 4, !tbaa !84
  br label %17

17:                                               ; preds = %15, %12
  %18 = phi i16 [ %.pre26, %15 ], [ %13, %12 ]
  %19 = and i16 %18, 8
  %.not16 = icmp eq i16 %19, 0
  br i1 %.not16, label %22, label %20

20:                                               ; preds = %17
  %21 = call i32 @PMIx_Argv_append_nosize(ptr noundef nonnull %2, ptr noundef nonnull @.str.184) #13
  %.pre27 = load i16, ptr %7, align 4, !tbaa !84
  br label %22

22:                                               ; preds = %20, %17
  %23 = phi i16 [ %.pre27, %20 ], [ %18, %17 ]
  %24 = and i16 %23, 32
  %.not17 = icmp eq i16 %24, 0
  br i1 %.not17, label %27, label %25

25:                                               ; preds = %22
  %26 = call i32 @PMIx_Argv_append_nosize(ptr noundef nonnull %2, ptr noundef nonnull @.str.185) #13
  %.pre28 = load i16, ptr %7, align 4, !tbaa !84
  br label %27

27:                                               ; preds = %25, %22
  %28 = phi i16 [ %.pre28, %25 ], [ %23, %22 ]
  %29 = and i16 %28, 64
  %.not18 = icmp eq i16 %29, 0
  br i1 %.not18, label %32, label %30

30:                                               ; preds = %27
  %31 = call i32 @PMIx_Argv_append_nosize(ptr noundef nonnull %2, ptr noundef nonnull @.str.186) #13
  %.pre29 = load i16, ptr %7, align 4, !tbaa !84
  br label %32

32:                                               ; preds = %30, %27
  %33 = phi i16 [ %.pre29, %30 ], [ %28, %27 ]
  %34 = and i16 %33, 128
  %.not19 = icmp eq i16 %34, 0
  br i1 %.not19, label %37, label %35

35:                                               ; preds = %32
  %36 = call i32 @PMIx_Argv_append_nosize(ptr noundef nonnull %2, ptr noundef nonnull @.str.187) #13
  %.pre30 = load i16, ptr %7, align 4, !tbaa !84
  br label %37

37:                                               ; preds = %35, %32
  %38 = phi i16 [ %.pre30, %35 ], [ %33, %32 ]
  %39 = and i16 %38, 512
  %.not20 = icmp eq i16 %39, 0
  br i1 %.not20, label %42, label %40

40:                                               ; preds = %37
  %41 = call i32 @PMIx_Argv_append_nosize(ptr noundef nonnull %2, ptr noundef nonnull @.str.188) #13
  %.pre31 = load i16, ptr %7, align 4, !tbaa !84
  br label %42

42:                                               ; preds = %40, %37
  %43 = phi i16 [ %.pre31, %40 ], [ %38, %37 ]
  %44 = and i16 %43, 1024
  %.not21 = icmp eq i16 %44, 0
  br i1 %.not21, label %47, label %45

45:                                               ; preds = %42
  %46 = call i32 @PMIx_Argv_append_nosize(ptr noundef nonnull %2, ptr noundef nonnull @.str.189) #13
  %.pre32 = load i16, ptr %7, align 4, !tbaa !84
  br label %47

47:                                               ; preds = %45, %42
  %48 = phi i16 [ %.pre32, %45 ], [ %43, %42 ]
  %49 = and i16 %48, 2048
  %.not22 = icmp eq i16 %49, 0
  br i1 %.not22, label %52, label %50

50:                                               ; preds = %47
  %51 = call i32 @PMIx_Argv_append_nosize(ptr noundef nonnull %2, ptr noundef nonnull @.str.179) #13
  %.pre33 = load i16, ptr %7, align 4, !tbaa !84
  br label %52

52:                                               ; preds = %50, %47
  %53 = phi i16 [ %.pre33, %50 ], [ %48, %47 ]
  %54 = and i16 %53, 4096
  %.not23 = icmp eq i16 %54, 0
  br i1 %.not23, label %57, label %55

55:                                               ; preds = %52
  %56 = call i32 @PMIx_Argv_append_nosize(ptr noundef nonnull %2, ptr noundef nonnull @.str.190) #13
  %.pre34 = load i16, ptr %7, align 4, !tbaa !84
  br label %57

57:                                               ; preds = %55, %52
  %58 = phi i16 [ %.pre34, %55 ], [ %53, %52 ]
  %59 = and i16 %58, 8192
  %.not24 = icmp eq i16 %59, 0
  br i1 %.not24, label %62, label %60

60:                                               ; preds = %57
  %61 = call i32 @PMIx_Argv_append_nosize(ptr noundef nonnull %2, ptr noundef nonnull @.str.191) #13
  %.pre35 = load i16, ptr %7, align 4, !tbaa !84
  br label %62

62:                                               ; preds = %60, %57
  %63 = phi i16 [ %.pre35, %60 ], [ %58, %57 ]
  %64 = and i16 %63, 16384
  %.not25 = icmp eq i16 %64, 0
  br i1 %.not25, label %67, label %65

65:                                               ; preds = %62
  %66 = call i32 @PMIx_Argv_append_nosize(ptr noundef nonnull %2, ptr noundef nonnull @.str.192) #13
  br label %67

67:                                               ; preds = %65, %62
  %68 = load ptr, ptr %2, align 8, !tbaa !70
  %69 = call ptr @PMIx_Argv_join(ptr noundef %68, i32 noundef 124) #13
  %70 = load ptr, ptr %2, align 8, !tbaa !70
  call void @PMIx_Argv_free(ptr noundef %70) #13
  call void @llvm.lifetime.end.p0(i64 8, ptr nonnull %2) #13
  ret ptr %69
}